target datalayout = "e-m:e-p270:32:32-p271:32:32-p272:64:64-i64:64-i128:128-f80:128-n8:16:32:64-S128"
target triple = "x86_64-pc-linux-gnu"

%"struct.Yosys::RTLIL::Const" = type { i16, i8, %union.anon }
%union.anon = type { %"class.std::__cxx11::basic_string" }
%"class.std::__cxx11::basic_string" = type { %"struct.std::__cxx11::basic_string<char>::_Alloc_hider", i64, %union.anon.90 }
%"struct.std::__cxx11::basic_string<char>::_Alloc_hider" = type { ptr }
%union.anon.90 = type { i64, [8 x i8] }
%"struct.std::_Rb_tree_header" = type { %"struct.std::_Rb_tree_node_base", i64 }
%"struct.std::_Rb_tree_node_base" = type { i32, ptr, ptr, ptr }
%"class.Yosys::MemContents" = type { i32, i32, %"struct.Yosys::RTLIL::Const", %"class.std::map.232" }
%"class.std::map.232" = type { %"class.std::_Rb_tree.233" }
%"class.std::_Rb_tree.233" = type { %"struct.std::_Rb_tree<unsigned int, std::pair<const unsigned int, Yosys::RTLIL::Const>, std::_Select1st<std::pair<const unsigned int, Yosys::RTLIL::Const>>, std::less<unsigned int>>::_Rb_tree_impl" }
%"struct.std::_Rb_tree<unsigned int, std::pair<const unsigned int, Yosys::RTLIL::Const>, std::_Select1st<std::pair<const unsigned int, Yosys::RTLIL::Const>>, std::less<unsigned int>>::_Rb_tree_impl" = type { [8 x i8], %"struct.std::_Rb_tree_header" }
%"struct.std::pair.239" = type { i32, %"struct.Yosys::RTLIL::Const" }
%"struct.std::_Rb_tree_const_iterator.238" = type { ptr }
%"class.Yosys::MemContents::iterator" = type <{ ptr, i32, [4 x i8] }>
%"struct.std::_Rb_tree_node.350" = type { %"struct.std::_Rb_tree_node_base", %"struct.__gnu_cxx::__aligned_membuf.351" }
%"struct.__gnu_cxx::__aligned_membuf.351" = type { [48 x i8] }
%"struct.std::_Select1st.372" = type { i8 }

; Function Attrs: mustprogress nounwind uwtable
define linkonce_odr noundef nonnull align 4 dereferenceable(4) ptr @_ZNKSt10_Select1stISt4pairIKjN5Yosys5RTLIL5ConstEEEclERKS5_(ptr noundef nonnull align 1 dereferenceable(1) %0, ptr noundef nonnull align 8 dereferenceable(48) %1) #8 comdat align 2 {
  %3 = alloca ptr, align 8
  %4 = alloca ptr, align 8
  store ptr %0, ptr %3, align 8, !tbaa !1314
  store ptr %1, ptr %4, align 8, !tbaa !1121
  %5 = load ptr, ptr %4, align 8, !tbaa !1121
  %6 = getelementptr inbounds nuw %"struct.std::pair.239", ptr %5, i32 0, i32 0
  ret ptr %6
}

; Function Attrs: mustprogress nounwind uwtable
define linkonce_odr noundef ptr @_ZNK9__gnu_cxx16__aligned_membufISt4pairIKjN5Yosys5RTLIL5ConstEEE7_M_addrEv(ptr noundef nonnull align 8 dereferenceable(48) %0) #8 comdat align 2 {
  %2 = alloca ptr, align 8
  store ptr %0, ptr %2, align 8, !tbaa !1123
  %3 = load ptr, ptr %2, align 8
  %4 = getelementptr inbounds nuw %"struct.__gnu_cxx::__aligned_membuf.351", ptr %3, i32 0, i32 0
  ret ptr %4
}

; Function Attrs: mustprogress nounwind uwtable
define linkonce_odr noundef ptr @_ZNSt8_Rb_treeIjSt4pairIKjN5Yosys5RTLIL5ConstEESt10_Select1stIS5_ESt4lessIjESaIS5_EE8_S_rightEPKSt18_Rb_tree_node_base(ptr noundef %0) #8 comdat align 2 {
  %2 = alloca ptr, align 8
  store ptr %0, ptr %2, align 8, !tbaa !210
  %3 = load ptr, ptr %2, align 8, !tbaa !210
  %4 = getelementptr inbounds nuw %"struct.std::_Rb_tree_node_base", ptr %3, i32 0, i32 3
  %5 = load ptr, ptr %4, align 8, !tbaa !771
  ret ptr %5
}

; Function Attrs: mustprogress nounwind uwtable
define linkonce_odr noundef ptr @_ZNSt8_Rb_treeIjSt4pairIKjN5Yosys5RTLIL5ConstEESt10_Select1stIS5_ESt4lessIjESaIS5_EE7_S_leftEPKSt18_Rb_tree_node_base(ptr noundef %0) #8 comdat align 2 {
  %2 = alloca ptr, align 8
  store ptr %0, ptr %2, align 8, !tbaa !210
  %3 = load ptr, ptr %2, align 8, !tbaa !210
  %4 = getelementptr inbounds nuw %"struct.std::_Rb_tree_node_base", ptr %3, i32 0, i32 2
  %5 = load ptr, ptr %4, align 8, !tbaa !772
  ret ptr %5
}

; Function Attrs: mustprogress nounwind uwtable
define linkonce_odr noundef zeroext i1 @_ZNKSt4lessIjEclERKjS2_(ptr noundef nonnull align 1 dereferenceable(1) %0, ptr noundef nonnull align 4 dereferenceable(4) %1, ptr noundef nonnull align 4 dereferenceable(4) %2) #8 comdat align 2 {
  %4 = alloca ptr, align 8
  %5 = alloca ptr, align 8
  %6 = alloca ptr, align 8
  store ptr %0, ptr %4, align 8, !tbaa !1312
  store ptr %1, ptr %5, align 8, !tbaa !153
  store ptr %2, ptr %6, align 8, !tbaa !153
  %7 = load ptr, ptr %5, align 8, !tbaa !153
  %8 = load i32, ptr %7, align 4, !tbaa !89
  %9 = load ptr, ptr %6, align 8, !tbaa !153
  %10 = load i32, ptr %9, align 4, !tbaa !89
  %11 = icmp ult i32 %8, %10
  ret i1 %11
}

; Function Attrs: mustprogress uwtable
define linkonce_odr noundef nonnull align 4 dereferenceable(4) ptr @_ZNSt8_Rb_treeIjSt4pairIKjN5Yosys5RTLIL5ConstEESt10_Select1stIS5_ESt4lessIjESaIS5_EE6_S_keyEPKSt13_Rb_tree_nodeIS5_E(ptr noundef %0) #4 comdat align 2 {
  %2 = alloca ptr, align 8
  %3 = alloca %"struct.std::_Select1st.372", align 1
  store ptr %0, ptr %2, align 8, !tbaa !1118
  call void @llvm.lifetime.start.p0(i64 1, ptr %3) #3
  %4 = load ptr, ptr %2, align 8, !tbaa !1118
  %5 = call noundef ptr @_ZNKSt13_Rb_tree_nodeISt4pairIKjN5Yosys5RTLIL5ConstEEE9_M_valptrEv(ptr noundef nonnull align 8 dereferenceable(80) %4)
  %6 = call noundef nonnull align 4 dereferenceable(4) ptr @_ZNKSt10_Select1stISt4pairIKjN5Yosys5RTLIL5ConstEEEclERKS5_(ptr noundef nonnull align 1 dereferenceable(1) %3, ptr noundef nonnull align 8 dereferenceable(48) %5)
  call void @llvm.lifetime.end.p0(i64 1, ptr %3) #3
  ret ptr %6
}

; Function Attrs: mustprogress nounwind uwtable
define linkonce_odr noundef ptr @_ZNK9__gnu_cxx16__aligned_membufISt4pairIKjN5Yosys5RTLIL5ConstEEE6_M_ptrEv(ptr noundef nonnull align 8 dereferenceable(48) %0) #8 comdat align 2 {
  %2 = alloca ptr, align 8
  store ptr %0, ptr %2, align 8, !tbaa !1123
  %3 = load ptr, ptr %2, align 8
  %4 = call noundef ptr @_ZNK9__gnu_cxx16__aligned_membufISt4pairIKjN5Yosys5RTLIL5ConstEEE7_M_addrEv(ptr noundef nonnull align 8 dereferenceable(48) %3) #3
  ret ptr %4
}

; Function Attrs: mustprogress nounwind uwtable
define linkonce_odr void @_ZNSt23_Rb_tree_const_iteratorISt4pairIKjN5Yosys5RTLIL5ConstEEEC2EPKSt18_Rb_tree_node_base(ptr noundef nonnull align 8 dereferenceable(8) %0, ptr noundef %1) unnamed_addr #8 comdat align 2 {
  %3 = alloca ptr, align 8
  %4 = alloca ptr, align 8
  store ptr %0, ptr %3, align 8, !tbaa !508
  store ptr %1, ptr %4, align 8, !tbaa !210
  %5 = load ptr, ptr %3, align 8
  %6 = getelementptr inbounds nuw %"struct.std::_Rb_tree_const_iterator.238", ptr %5, i32 0, i32 0
  %7 = load ptr, ptr %4, align 8, !tbaa !210
  store ptr %7, ptr %6, align 8, !tbaa !510
  ret void
}

; Function Attrs: mustprogress uwtable
define linkonce_odr ptr @_ZNKSt8_Rb_treeIjSt4pairIKjN5Yosys5RTLIL5ConstEESt10_Select1stIS5_ESt4lessIjESaIS5_EE14_M_upper_boundEPKSt13_Rb_tree_nodeIS5_EPKSt18_Rb_tree_node_baseRS1_(ptr noundef nonnull align 8 dereferenceable(48) %0, ptr noundef %1, ptr noundef %2, ptr noundef nonnull align 4 dereferenceable(4) %3) #4 comdat align 2 {
  %5 = alloca %"struct.std::_Rb_tree_const_iterator.238", align 8
  %6 = alloca ptr, align 8
  %7 = alloca ptr, align 8
  %8 = alloca ptr, align 8
  %9 = alloca ptr, align 8
  store ptr %0, ptr %6, align 8, !tbaa !1108
  store ptr %1, ptr %7, align 8, !tbaa !1118
  store ptr %2, ptr %8, align 8, !tbaa !210
  store ptr %3, ptr %9, align 8, !tbaa !153
  %10 = load ptr, ptr %6, align 8
  br label %11

11:                                               ; preds = %27, %4
  %12 = load ptr, ptr %7, align 8, !tbaa !1118
  %13 = icmp ne ptr %12, null
  br i1 %13, label %14, label %28

14:                                               ; preds = %11
  %15 = getelementptr inbounds nuw %"class.std::_Rb_tree.233", ptr %10, i32 0, i32 0
  %16 = load ptr, ptr %9, align 8, !tbaa !153
  %17 = load ptr, ptr %7, align 8, !tbaa !1118
  %18 = call noundef nonnull align 4 dereferenceable(4) ptr @_ZNSt8_Rb_treeIjSt4pairIKjN5Yosys5RTLIL5ConstEESt10_Select1stIS5_ESt4lessIjESaIS5_EE6_S_keyEPKSt13_Rb_tree_nodeIS5_E(ptr noundef %17)
  %19 = call noundef zeroext i1 @_ZNKSt4lessIjEclERKjS2_(ptr noundef nonnull align 1 dereferenceable(1) %15, ptr noundef nonnull align 4 dereferenceable(4) %16, ptr noundef nonnull align 4 dereferenceable(4) %18)
  br i1 %19, label %20, label %24

20:                                               ; preds = %14
  %21 = load ptr, ptr %7, align 8, !tbaa !1118
  store ptr %21, ptr %8, align 8, !tbaa !210
  %22 = load ptr, ptr %7, align 8, !tbaa !1118
  %23 = call noundef ptr @_ZNSt8_Rb_treeIjSt4pairIKjN5Yosys5RTLIL5ConstEESt10_Select1stIS5_ESt4lessIjESaIS5_EE7_S_leftEPKSt18_Rb_tree_node_base(ptr noundef %22) #3
  store ptr %23, ptr %7, align 8, !tbaa !1118
  br label %27

24:                                               ; preds = %14
  %25 = load ptr, ptr %7, align 8, !tbaa !1118
  %26 = call noundef ptr @_ZNSt8_Rb_treeIjSt4pairIKjN5Yosys5RTLIL5ConstEESt10_Select1stIS5_ESt4lessIjESaIS5_EE8_S_rightEPKSt18_Rb_tree_node_base(ptr noundef %25) #3
  store ptr %26, ptr %7, align 8, !tbaa !1118
  br label %27

27:                                               ; preds = %24, %20
  br label %11, !llvm.loop !1311

28:                                               ; preds = %11
  %29 = load ptr, ptr %8, align 8, !tbaa !210
  call void @_ZNSt23_Rb_tree_const_iteratorISt4pairIKjN5Yosys5RTLIL5ConstEEEC2EPKSt18_Rb_tree_node_base(ptr noundef nonnull align 8 dereferenceable(8) %5, ptr noundef %29) #3
  %30 = getelementptr inbounds nuw %"struct.std::_Rb_tree_const_iterator.238", ptr %5, i32 0, i32 0
  %31 = load ptr, ptr %30, align 8
  ret ptr %31
}

; Function Attrs: mustprogress nounwind uwtable
define linkonce_odr noundef ptr @_ZNKSt8_Rb_treeIjSt4pairIKjN5Yosys5RTLIL5ConstEESt10_Select1stIS5_ESt4lessIjESaIS5_EE6_M_endEv(ptr noundef nonnull align 8 dereferenceable(48) %0) #8 comdat align 2 {
  %2 = alloca ptr, align 8
  store ptr %0, ptr %2, align 8, !tbaa !1108
  %3 = load ptr, ptr %2, align 8
  %4 = getelementptr inbounds nuw %"class.std::_Rb_tree.233", ptr %3, i32 0, i32 0
  %5 = getelementptr inbounds i8, ptr %4, i64 8
  %6 = getelementptr inbounds nuw %"struct.std::_Rb_tree_header", ptr %5, i32 0, i32 0
  ret ptr %6
}

; Function Attrs: mustprogress nounwind uwtable
define linkonce_odr noundef ptr @_ZNKSt8_Rb_treeIjSt4pairIKjN5Yosys5RTLIL5ConstEESt10_Select1stIS5_ESt4lessIjESaIS5_EE8_M_beginEv(ptr noundef nonnull align 8 dereferenceable(48) %0) #8 comdat align 2 {
  %2 = alloca ptr, align 8
  store ptr %0, ptr %2, align 8, !tbaa !1108
  %3 = load ptr, ptr %2, align 8
  %4 = getelementptr inbounds nuw %"class.std::_Rb_tree.233", ptr %3, i32 0, i32 0
  %5 = getelementptr inbounds i8, ptr %4, i64 8
  %6 = getelementptr inbounds nuw %"struct.std::_Rb_tree_header", ptr %5, i32 0, i32 0
  %7 = getelementptr inbounds nuw %"struct.std::_Rb_tree_node_base", ptr %6, i32 0, i32 1
  %8 = load ptr, ptr %7, align 8, !tbaa !743
  ret ptr %8
}

; Function Attrs: noinline noreturn nounwind uwtable
define linkonce_odr hidden void @__clang_call_terminate(ptr noundef %0) #13 comdat {
  %2 = call ptr @__cxa_begin_catch(ptr %0) #3
  call void @_ZSt9terminatev() #25
  unreachable
}

; Function Attrs: mustprogress nounwind uwtable
define linkonce_odr noundef ptr @_ZNKSt13_Rb_tree_nodeISt4pairIKjN5Yosys5RTLIL5ConstEEE9_M_valptrEv(ptr noundef nonnull align 8 dereferenceable(80) %0) #8 comdat align 2 {
  %2 = alloca ptr, align 8
  store ptr %0, ptr %2, align 8, !tbaa !1118
  %3 = load ptr, ptr %2, align 8
  %4 = getelementptr inbounds nuw %"struct.std::_Rb_tree_node.350", ptr %3, i32 0, i32 1
  %5 = call noundef ptr @_ZNK9__gnu_cxx16__aligned_membufISt4pairIKjN5Yosys5RTLIL5ConstEEE6_M_ptrEv(ptr noundef nonnull align 8 dereferenceable(48) %4) #3
  ret ptr %5
}

; Function Attrs: mustprogress nounwind uwtable
define linkonce_odr ptr @_ZNKSt8_Rb_treeIjSt4pairIKjN5Yosys5RTLIL5ConstEESt10_Select1stIS5_ESt4lessIjESaIS5_EE3endEv(ptr noundef nonnull align 8 dereferenceable(48) %0) #8 comdat align 2 {
  %2 = alloca %"struct.std::_Rb_tree_const_iterator.238", align 8
  %3 = alloca ptr, align 8
  store ptr %0, ptr %3, align 8, !tbaa !1108
  %4 = load ptr, ptr %3, align 8
  %5 = getelementptr inbounds nuw %"class.std::_Rb_tree.233", ptr %4, i32 0, i32 0
  %6 = getelementptr inbounds i8, ptr %5, i64 8
  %7 = getelementptr inbounds nuw %"struct.std::_Rb_tree_header", ptr %6, i32 0, i32 0
  call void @_ZNSt23_Rb_tree_const_iteratorISt4pairIKjN5Yosys5RTLIL5ConstEEEC2EPKSt18_Rb_tree_node_base(ptr noundef nonnull align 8 dereferenceable(8) %2, ptr noundef %7) #3
  %8 = getelementptr inbounds nuw %"struct.std::_Rb_tree_const_iterator.238", ptr %2, i32 0, i32 0
  %9 = load ptr, ptr %8, align 8
  ret ptr %9
}

; Function Attrs: mustprogress uwtable
define linkonce_odr ptr @_ZNKSt8_Rb_treeIjSt4pairIKjN5Yosys5RTLIL5ConstEESt10_Select1stIS5_ESt4lessIjESaIS5_EE11upper_boundERS1_(ptr noundef nonnull align 8 dereferenceable(48) %0, ptr noundef nonnull align 4 dereferenceable(4) %1) #4 comdat align 2 {
  %3 = alloca %"struct.std::_Rb_tree_const_iterator.238", align 8
  %4 = alloca ptr, align 8
  %5 = alloca ptr, align 8
  store ptr %0, ptr %4, align 8, !tbaa !1108
  store ptr %1, ptr %5, align 8, !tbaa !153
  %6 = load ptr, ptr %4, align 8
  %7 = call noundef ptr @_ZNKSt8_Rb_treeIjSt4pairIKjN5Yosys5RTLIL5ConstEESt10_Select1stIS5_ESt4lessIjESaIS5_EE8_M_beginEv(ptr noundef nonnull align 8 dereferenceable(48) %6) #3
  %8 = call noundef ptr @_ZNKSt8_Rb_treeIjSt4pairIKjN5Yosys5RTLIL5ConstEESt10_Select1stIS5_ESt4lessIjESaIS5_EE6_M_endEv(ptr noundef nonnull align 8 dereferenceable(48) %6) #3
  %9 = load ptr, ptr %5, align 8, !tbaa !153
  %10 = call ptr @_ZNKSt8_Rb_treeIjSt4pairIKjN5Yosys5RTLIL5ConstEESt10_Select1stIS5_ESt4lessIjESaIS5_EE14_M_upper_boundEPKSt13_Rb_tree_nodeIS5_EPKSt18_Rb_tree_node_baseRS1_(ptr noundef nonnull align 8 dereferenceable(48) %6, ptr noundef %7, ptr noundef %8, ptr noundef nonnull align 4 dereferenceable(4) %9)
  %11 = getelementptr inbounds nuw %"struct.std::_Rb_tree_const_iterator.238", ptr %3, i32 0, i32 0
  store ptr %10, ptr %11, align 8
  %12 = getelementptr inbounds nuw %"struct.std::_Rb_tree_const_iterator.238", ptr %3, i32 0, i32 0
  %13 = load ptr, ptr %12, align 8
  ret ptr %13
}

; Function Attrs: mustprogress nounwind uwtable
define linkonce_odr noundef ptr @_ZNKSt23_Rb_tree_const_iteratorISt4pairIKjN5Yosys5RTLIL5ConstEEEptEv(ptr noundef nonnull align 8 dereferenceable(8) %0) #8 comdat align 2 personality ptr @__gxx_personality_v0 {
  %2 = alloca ptr, align 8
  store ptr %0, ptr %2, align 8, !tbaa !508
  %3 = load ptr, ptr %2, align 8
  %4 = getelementptr inbounds nuw %"struct.std::_Rb_tree_const_iterator.238", ptr %3, i32 0, i32 0
  %5 = load ptr, ptr %4, align 8, !tbaa !510
  %6 = invoke noundef ptr @_ZNKSt13_Rb_tree_nodeISt4pairIKjN5Yosys5RTLIL5ConstEEE9_M_valptrEv(ptr noundef nonnull align 8 dereferenceable(80) %5)
          to label %7 unwind label %8

7:                                                ; preds = %1
  ret ptr %6

8:                                                ; preds = %1
  %9 = landingpad { ptr, i32 }
          catch ptr null
  %10 = extractvalue { ptr, i32 } %9, 0
  call void @__clang_call_terminate(ptr %10) #25
  unreachable
}

; Function Attrs: mustprogress nounwind uwtable
define linkonce_odr noundef zeroext i1 @_ZSteqRKSt23_Rb_tree_const_iteratorISt4pairIKjN5Yosys5RTLIL5ConstEEES8_(ptr noundef nonnull align 8 dereferenceable(8) %0, ptr noundef nonnull align 8 dereferenceable(8) %1) #8 comdat {
  %3 = alloca ptr, align 8
  %4 = alloca ptr, align 8
  store ptr %0, ptr %3, align 8, !tbaa !508
  store ptr %1, ptr %4, align 8, !tbaa !508
  %5 = load ptr, ptr %3, align 8, !tbaa !508
  %6 = getelementptr inbounds nuw %"struct.std::_Rb_tree_const_iterator.238", ptr %5, i32 0, i32 0
  %7 = load ptr, ptr %6, align 8, !tbaa !510
  %8 = load ptr, ptr %4, align 8, !tbaa !508
  %9 = getelementptr inbounds nuw %"struct.std::_Rb_tree_const_iterator.238", ptr %8, i32 0, i32 0
  %10 = load ptr, ptr %9, align 8, !tbaa !510
  %11 = icmp eq ptr %7, %10
  ret i1 %11
}

; Function Attrs: mustprogress nounwind uwtable
define linkonce_odr ptr @_ZNKSt3mapIjN5Yosys5RTLIL5ConstESt4lessIjESaISt4pairIKjS2_EEE3endEv(ptr noundef nonnull align 8 dereferenceable(48) %0) #8 comdat align 2 {
  %2 = alloca %"struct.std::_Rb_tree_const_iterator.238", align 8
  %3 = alloca ptr, align 8
  store ptr %0, ptr %3, align 8, !tbaa !506
  %4 = load ptr, ptr %3, align 8
  %5 = getelementptr inbounds nuw %"class.std::map.232", ptr %4, i32 0, i32 0
  %6 = call ptr @_ZNKSt8_Rb_treeIjSt4pairIKjN5Yosys5RTLIL5ConstEESt10_Select1stIS5_ESt4lessIjESaIS5_EE3endEv(ptr noundef nonnull align 8 dereferenceable(48) %5) #3
  %7 = getelementptr inbounds nuw %"struct.std::_Rb_tree_const_iterator.238", ptr %2, i32 0, i32 0
  store ptr %6, ptr %7, align 8
  %8 = getelementptr inbounds nuw %"struct.std::_Rb_tree_const_iterator.238", ptr %2, i32 0, i32 0
  %9 = load ptr, ptr %8, align 8
  ret ptr %9
}

; Function Attrs: mustprogress uwtable
define linkonce_odr ptr @_ZNKSt3mapIjN5Yosys5RTLIL5ConstESt4lessIjESaISt4pairIKjS2_EEE11upper_boundERS6_(ptr noundef nonnull align 8 dereferenceable(48) %0, ptr noundef nonnull align 4 dereferenceable(4) %1) #4 comdat align 2 {
  %3 = alloca %"struct.std::_Rb_tree_const_iterator.238", align 8
  %4 = alloca ptr, align 8
  %5 = alloca ptr, align 8
  store ptr %0, ptr %4, align 8, !tbaa !506
  store ptr %1, ptr %5, align 8, !tbaa !153
  %6 = load ptr, ptr %4, align 8
  %7 = getelementptr inbounds nuw %"class.std::map.232", ptr %6, i32 0, i32 0
  %8 = load ptr, ptr %5, align 8, !tbaa !153
  %9 = call ptr @_ZNKSt8_Rb_treeIjSt4pairIKjN5Yosys5RTLIL5ConstEESt10_Select1stIS5_ESt4lessIjESaIS5_EE11upper_boundERS1_(ptr noundef nonnull align 8 dereferenceable(48) %7, ptr noundef nonnull align 4 dereferenceable(4) %8)
  %10 = getelementptr inbounds nuw %"struct.std::_Rb_tree_const_iterator.238", ptr %3, i32 0, i32 0
  store ptr %9, ptr %10, align 8
  %11 = getelementptr inbounds nuw %"struct.std::_Rb_tree_const_iterator.238", ptr %3, i32 0, i32 0
  %12 = load ptr, ptr %11, align 8
  ret ptr %12
}

; Function Attrs: mustprogress uwtable
define noundef nonnull align 8 dereferenceable(12) ptr @_ZN5Yosys11MemContents8iteratorppEv(ptr noundef nonnull align 8 dereferenceable(12) %0) #4 align 2 {
  %2 = alloca ptr, align 8
  %3 = alloca %"struct.std::_Rb_tree_const_iterator.238", align 8
  %4 = alloca %"struct.std::_Rb_tree_const_iterator.238", align 8
  store ptr %0, ptr %2, align 8, !tbaa !499
  %5 = load ptr, ptr %2, align 8
  call void @llvm.lifetime.start.p0(i64 8, ptr %3) #3
  %6 = getelementptr inbounds nuw %"class.Yosys::MemContents::iterator", ptr %5, i32 0, i32 0
  %7 = load ptr, ptr %6, align 8, !tbaa !501
  %8 = getelementptr inbounds nuw %"class.Yosys::MemContents", ptr %7, i32 0, i32 3
  %9 = getelementptr inbounds nuw %"class.Yosys::MemContents::iterator", ptr %5, i32 0, i32 1
  %10 = call ptr @_ZNKSt3mapIjN5Yosys5RTLIL5ConstESt4lessIjESaISt4pairIKjS2_EEE11upper_boundERS6_(ptr noundef nonnull align 8 dereferenceable(48) %8, ptr noundef nonnull align 4 dereferenceable(4) %9)
  %11 = getelementptr inbounds nuw %"struct.std::_Rb_tree_const_iterator.238", ptr %3, i32 0, i32 0
  store ptr %10, ptr %11, align 8
  call void @llvm.lifetime.start.p0(i64 8, ptr %4) #3
  %12 = getelementptr inbounds nuw %"class.Yosys::MemContents::iterator", ptr %5, i32 0, i32 0
  %13 = load ptr, ptr %12, align 8, !tbaa !501
  %14 = getelementptr inbounds nuw %"class.Yosys::MemContents", ptr %13, i32 0, i32 3
  %15 = call ptr @_ZNKSt3mapIjN5Yosys5RTLIL5ConstESt4lessIjESaISt4pairIKjS2_EEE3endEv(ptr noundef nonnull align 8 dereferenceable(48) %14) #3
  %16 = getelementptr inbounds nuw %"struct.std::_Rb_tree_const_iterator.238", ptr %4, i32 0, i32 0
  store ptr %15, ptr %16, align 8
  %17 = call noundef zeroext i1 @_ZSteqRKSt23_Rb_tree_const_iteratorISt4pairIKjN5Yosys5RTLIL5ConstEEES8_(ptr noundef nonnull align 8 dereferenceable(8) %3, ptr noundef nonnull align 8 dereferenceable(8) %4) #3
  call void @llvm.lifetime.end.p0(i64 8, ptr %4) #3
  br i1 %17, label %18, label %21

18:                                               ; preds = %1
  %19 = getelementptr inbounds nuw %"class.Yosys::MemContents::iterator", ptr %5, i32 0, i32 0
  store ptr null, ptr %19, align 8, !tbaa !501
  %20 = getelementptr inbounds nuw %"class.Yosys::MemContents::iterator", ptr %5, i32 0, i32 1
  store i32 -1, ptr %20, align 8, !tbaa !503
  br label %26

21:                                               ; preds = %1
  %22 = call noundef ptr @_ZNKSt23_Rb_tree_const_iteratorISt4pairIKjN5Yosys5RTLIL5ConstEEEptEv(ptr noundef nonnull align 8 dereferenceable(8) %3) #3
  %23 = getelementptr inbounds nuw %"struct.std::pair.239", ptr %22, i32 0, i32 0
  %24 = load i32, ptr %23, align 8, !tbaa !504
  %25 = getelementptr inbounds nuw %"class.Yosys::MemContents::iterator", ptr %5, i32 0, i32 1
  store i32 %24, ptr %25, align 8, !tbaa !503
  br label %26

26:                                               ; preds = %21, %18
  call void @llvm.lifetime.end.p0(i64 8, ptr %3) #3
  ret ptr %5
}