; Function Attrs: mustprogress nofree norecurse nosync nounwind memory(read, argmem: readwrite, inaccessiblemem: none) uwtable
define noundef nonnull align 8 dereferenceable(12) ptr @_ZN5Yosys11MemContents8iteratorppEv(ptr noundef nonnull returned align 8 captures(ret: address, provenance) dereferenceable(12) %0) local_unnamed_addr #15 align 2 personality ptr @__gxx_personality_v0 {
  %2 = load ptr, ptr %0, align 8, !tbaa !599
  %3 = getelementptr inbounds nuw i8, ptr %0, i64 8
  %4 = getelementptr inbounds nuw i8, ptr %2, i64 64
  %5 = load ptr, ptr %4, align 8, !tbaa !264
  %6 = getelementptr inbounds nuw i8, ptr %2, i64 56
  %.not10.i.i.i = icmp eq ptr %5, null
  br i1 %.not10.i.i.i, label %_ZNKSt3mapIjN5Yosys5RTLIL5ConstESt4lessIjESaISt4pairIKjS2_EEE11upper_boundERS6_.exit.thread, label %.lr.ph.i.i.i

.lr.ph.i.i.i:                                     ; preds = %1
  %7 = load i32, ptr %3, align 8, !tbaa !50
  br label %8

8:                                                ; preds = %8, %.lr.ph.i.i.i
  %.012.i.i.i = phi ptr [ %5, %.lr.ph.i.i.i ], [ %.1.i.i.i, %8 ]
  %.0811.i.i.i = phi ptr [ %6, %.lr.ph.i.i.i ], [ %.19.i.i.i, %8 ]
  %9 = getelementptr inbounds nuw i8, ptr %.012.i.i.i, i64 32
  %10 = load i32, ptr %9, align 4, !tbaa !50
  %11 = icmp ult i32 %7, %10
  %.19.i.i.i = select i1 %11, ptr %.012.i.i.i, ptr %.0811.i.i.i
  %.1.in.v.i.i.i = select i1 %11, i64 16, i64 24
  %.1.in.i.i.i = getelementptr inbounds nuw i8, ptr %.012.i.i.i, i64 %.1.in.v.i.i.i
  %.1.i.i.i = load ptr, ptr %.1.in.i.i.i, align 8, !tbaa !268
  %.not.i.i.i = icmp eq ptr %.1.i.i.i, null
  br i1 %.not.i.i.i, label %_ZNKSt3mapIjN5Yosys5RTLIL5ConstESt4lessIjESaISt4pairIKjS2_EEE11upper_boundERS6_.exit, label %8, !llvm.loop !602

_ZNKSt3mapIjN5Yosys5RTLIL5ConstESt4lessIjESaISt4pairIKjS2_EEE11upper_boundERS6_.exit: ; preds = %8
  %12 = icmp eq ptr %.19.i.i.i, %6
  br i1 %12, label %_ZNKSt3mapIjN5Yosys5RTLIL5ConstESt4lessIjESaISt4pairIKjS2_EEE11upper_boundERS6_.exit.thread, label %13

_ZNKSt3mapIjN5Yosys5RTLIL5ConstESt4lessIjESaISt4pairIKjS2_EEE11upper_boundERS6_.exit.thread: ; preds = %1, %_ZNKSt3mapIjN5Yosys5RTLIL5ConstESt4lessIjESaISt4pairIKjS2_EEE11upper_boundERS6_.exit
  store ptr null, ptr %0, align 8, !tbaa !599
  br label %16

13:                                               ; preds = %_ZNKSt3mapIjN5Yosys5RTLIL5ConstESt4lessIjESaISt4pairIKjS2_EEE11upper_boundERS6_.exit
  %14 = getelementptr inbounds nuw i8, ptr %.19.i.i.i, i64 32
  %15 = load i32, ptr %14, align 8, !tbaa !593
  br label %16

16:                                               ; preds = %13, %_ZNKSt3mapIjN5Yosys5RTLIL5ConstESt4lessIjESaISt4pairIKjS2_EEE11upper_boundERS6_.exit.thread
  %storemerge = phi i32 [ %15, %13 ], [ -1, %_ZNKSt3mapIjN5Yosys5RTLIL5ConstESt4lessIjESaISt4pairIKjS2_EEE11upper_boundERS6_.exit.thread ]
  store i32 %storemerge, ptr %3, align 8, !tbaa !603
  ret ptr %0
}